target datalayout = "e-m:e-p270:32:32-p271:32:32-p272:64:64-i64:64-i128:128-f80:128-n8:16:32:64-S128"
target triple = "x86_64-pc-linux-gnu"

%struct.expert_field = type { i32, i32 }

@hf_tcp_option_kind = internal global i32 0, align 4
@hf_tcp_option_len = internal global i32 0, align 4
@ei_tcp_opt_len_invalid = internal global %struct.expert_field zeroinitializer, align 4
@.str.985 = private unnamed_addr constant [27 x i8] c"option length should be %u\00", align 1

; Function Attrs: nounwind uwtable
define internal i32 @tcp_option_len_check(ptr noundef %0, ptr noundef %1, i32 noundef %2, i32 noundef %3) #0 {
  %5 = alloca i32, align 4
  %6 = alloca ptr, align 8
  %7 = alloca ptr, align 8
  %8 = alloca i32, align 4
  %9 = alloca i32, align 4
  store ptr %0, ptr %6, align 8
  store ptr %1, ptr %7, align 8
  store i32 %2, ptr %8, align 4
  store i32 %3, ptr %9, align 4
  %10 = load i32, ptr %8, align 4
  %11 = load i32, ptr %9, align 4
  %12 = icmp ne i32 %10, %11
  br i1 %12, label %13, label %18

13:                                               ; preds = %4
  %14 = load ptr, ptr %7, align 8
  %15 = load ptr, ptr %6, align 8
  %16 = load i32, ptr %9, align 4
  %17 = call ptr (ptr, ptr, ptr, ptr, ...) @expert_add_info_format(ptr noundef %14, ptr noundef %15, ptr noundef @ei_tcp_opt_len_invalid, ptr noundef @.str.985, i32 noundef %16)
  store i32 0, ptr %5, align 4
  br label %19

18:                                               ; preds = %4
  store i32 1, ptr %5, align 4
  br label %19

19:                                               ; preds = %18, %13
  %20 = load i32, ptr %5, align 4
  ret i32 %20
}

; Function Attrs: nounwind uwtable
define internal i32 @dissect_tcpopt_default_option(ptr noundef %0, ptr noundef %1, ptr noundef %2, i32 noundef %3, i32 noundef %4) #0 {
  %6 = alloca i32, align 4
  %7 = alloca ptr, align 8
  %8 = alloca ptr, align 8
  %9 = alloca ptr, align 8
  %10 = alloca i32, align 4
  %11 = alloca i32, align 4
  %12 = alloca ptr, align 8
  %13 = alloca ptr, align 8
  %14 = alloca ptr, align 8
  %15 = alloca i32, align 4
  store ptr %0, ptr %7, align 8
  store ptr %1, ptr %8, align 8
  store ptr %2, ptr %9, align 8
  store i32 %3, ptr %10, align 4
  store i32 %4, ptr %11, align 4
  store i32 0, ptr %15, align 4
  %16 = load ptr, ptr %9, align 8
  %17 = load i32, ptr %10, align 4
  %18 = load ptr, ptr %7, align 8
  %19 = load i32, ptr %15, align 4
  %20 = call ptr @proto_tree_add_item(ptr noundef %16, i32 noundef %17, ptr noundef %18, i32 noundef %19, i32 noundef -1, i32 noundef 0)
  store ptr %20, ptr %12, align 8
  %21 = load ptr, ptr %12, align 8
  %22 = load i32, ptr %11, align 4
  %23 = call ptr @proto_item_add_subtree(ptr noundef %21, i32 noundef %22)
  store ptr %23, ptr %13, align 8
  %24 = load ptr, ptr %13, align 8
  %25 = load i32, ptr @hf_tcp_option_kind, align 4
  %26 = load ptr, ptr %7, align 8
  %27 = load i32, ptr %15, align 4
  %28 = call ptr @proto_tree_add_item(ptr noundef %24, i32 noundef %25, ptr noundef %26, i32 noundef %27, i32 noundef 1, i32 noundef 0)
  %29 = load ptr, ptr %13, align 8
  %30 = load i32, ptr @hf_tcp_option_len, align 4
  %31 = load ptr, ptr %7, align 8
  %32 = load i32, ptr %15, align 4
  %33 = add i32 %32, 1
  %34 = call ptr @proto_tree_add_item(ptr noundef %29, i32 noundef %30, ptr noundef %31, i32 noundef %33, i32 noundef 1, i32 noundef 0)
  store ptr %34, ptr %14, align 8
  %35 = load ptr, ptr %14, align 8
  %36 = load ptr, ptr %8, align 8
  %37 = load ptr, ptr %7, align 8
  %38 = call i32 @tvb_reported_length(ptr noundef %37)
  %39 = call i32 @tcp_option_len_check(ptr noundef %35, ptr noundef %36, i32 noundef %38, i32 noundef 2)
  %40 = icmp ne i32 %39, 0
  br i1 %40, label %44, label %41

41:                                               ; preds = %5
  %42 = load ptr, ptr %7, align 8
  %43 = call i32 @tvb_captured_length(ptr noundef %42)
  store i32 %43, ptr %6, align 4
  br label %47

44:                                               ; preds = %5
  %45 = load ptr, ptr %7, align 8
  %46 = call i32 @tvb_captured_length(ptr noundef %45)
  store i32 %46, ptr %6, align 4
  br label %47

47:                                               ; preds = %44, %41
  %48 = load i32, ptr %6, align 4
  ret i32 %48
}