; Function Attrs: nounwind uwtable
define internal fastcc i32 @dissect_tcpopt_default_option(ptr noundef %0, ptr noundef %1, ptr noundef %2, i32 noundef %3, i32 noundef %4) unnamed_addr #0 {
  %6 = tail call ptr @proto_tree_add_item(ptr noundef %2, i32 noundef %3, ptr noundef %0, i32 noundef 0, i32 noundef -1, i32 noundef 0) #20
  %7 = tail call ptr @proto_item_add_subtree(ptr noundef %6, i32 noundef %4) #20
  %8 = load i32, ptr @hf_tcp_option_kind, align 4
  %9 = tail call ptr @proto_tree_add_item(ptr noundef %7, i32 noundef %8, ptr noundef %0, i32 noundef 0, i32 noundef 1, i32 noundef 0) #20
  %10 = load i32, ptr @hf_tcp_option_len, align 4
  %11 = tail call ptr @proto_tree_add_item(ptr noundef %7, i32 noundef %10, ptr noundef %0, i32 noundef 1, i32 noundef 1, i32 noundef 0) #20
  %12 = tail call i32 @tvb_reported_length(ptr noundef %0) #20
  %.not.i = icmp eq i32 %12, 2
  br i1 %.not.i, label %tcp_option_len_check.exit, label %13

13:                                               ; preds = %5
  %14 = tail call ptr (ptr, ptr, ptr, ptr, ...) @expert_add_info_format(ptr noundef %1, ptr noundef %11, ptr noundef nonnull @ei_tcp_opt_len_invalid, ptr noundef nonnull @.str.985, i32 noundef 2) #20
  br label %tcp_option_len_check.exit

tcp_option_len_check.exit:                        ; preds = %5, %13
  %15 = tail call i32 @tvb_captured_length(ptr noundef %0) #20
  ret i32 %15
}